; Function Attrs: mustprogress nounwind uwtable
define hidden void @_ZN11ZGeneration16reset_statisticsEv(ptr noundef nonnull align 64 dereferenceable(6592) %0) local_unnamed_addr #0 align 2 {
  %2 = getelementptr inbounds i8, ptr %0, i64 3192
  store volatile i64 0, ptr %2, align 8
  %3 = getelementptr inbounds i8, ptr %0, i64 3200
  store volatile i64 0, ptr %3, align 64
  %4 = getelementptr inbounds i8, ptr %0, i64 3208
  store volatile i64 0, ptr %4, align 8
  %5 = getelementptr inbounds i8, ptr %0, i64 16
  %6 = load ptr, ptr %5, align 16
  %7 = getelementptr inbounds i8, ptr %0, i64 8
  %8 = load i8, ptr %7, align 8
  tail call void @_ZN14ZPageAllocator16reset_statisticsE13ZGenerationId(ptr noundef nonnull align 8 dereferenceable(609) %6, i8 noundef zeroext %8) #18
  ret void
}